target datalayout = "e-m:e-p270:32:32-p271:32:32-p272:64:64-i64:64-i128:128-f80:128-n8:16:32:64-S128"
target triple = "x86_64-pc-linux-gnu"

%struct.jar_xm_context_s = type { ptr, %struct.jar_xm_module_s, i32, i16, i16, float, i16, i16, float, float, float, i8, i8, i16, float, i64, i8, i8, i8, i8, i16, ptr, i8, i8, ptr }
%struct.jar_xm_module_s = type { [21 x i8], [21 x i8], i16, i16, i16, i16, i16, i16, i16, i32, [256 x i8], ptr, ptr }

; Function Attrs: nounwind uwtable
define hidden void @jar_xm_free_context(ptr noundef %0) #0 {
  %2 = alloca ptr, align 8
  store ptr %0, ptr %2, align 8
  %3 = load ptr, ptr %2, align 8
  %4 = icmp ne ptr %3, null
  br i1 %4, label %5, label %9

5:                                                ; preds = %1
  %6 = load ptr, ptr %2, align 8
  %7 = getelementptr inbounds nuw %struct.jar_xm_context_s, ptr %6, i32 0, i32 0
  %8 = load ptr, ptr %7, align 8
  call void @free(ptr noundef %8) #21
  br label %9

9:                                                ; preds = %5, %1
  ret void
}