; Function Attrs: mustprogress nounwind willreturn uwtable
define hidden void @jar_xm_free_context(ptr noundef readonly captures(address_is_null) %0) local_unnamed_addr #61 {
  %.not = icmp eq ptr %0, null
  br i1 %.not, label %4, label %2

2:                                                ; preds = %1
  %3 = load ptr, ptr %0, align 8
  tail call void @free(ptr noundef %3) #72
  br label %4

4:                                                ; preds = %2, %1
  ret void
}